target datalayout = "e-m:e-p270:32:32-p271:32:32-p272:64:64-i64:64-i128:128-f80:128-n8:16:32:64-S128"
target triple = "x86_64-pc-linux-gnu"

%struct.VFIOVGARegion = type { %struct.MemoryRegion, i64, i32, %struct.anon }
%struct.MemoryRegion = type { %struct.Object, i8, i8, i8, i8, i8, i8, i8, i8, i8, i8, ptr, ptr, ptr, ptr, ptr, ptr, i32, i128, i64, ptr, i64, i8, i8, i8, i8, ptr, i64, i32, %union.anon, %union.anon.0, %union.anon.1, ptr, i32, ptr, ptr, i8 }
%struct.Object = type { ptr, ptr, ptr, i32, ptr }
%union.anon = type { %struct.QTailQLink }
%struct.QTailQLink = type { ptr, ptr }
%union.anon.0 = type { %struct.QTailQLink }
%union.anon.1 = type { %struct.QTailQLink }
%struct.anon = type { ptr }
%struct.VFIOVGA = type { i64, i32, [3 x %struct.VFIOVGARegion] }
%struct.VFIOPCIDevice = type { %struct.PCIDevice, %struct.VFIODevice, %struct.VFIOINTx, i32, ptr, i64, i32, i64, ptr, i32, ptr, ptr, i32, i32, [6 x %struct.VFIOBAR], ptr, ptr, %struct.PCIHostDeviceAddress, %struct.QemuUUID, %struct.EventNotifier, %struct.EventNotifier, ptr, i32, i32, i32, i32, i32, i32, i32, i32, i32, i32, i32, i8, i8, i8, i8, i8, i8, i8, i8, i8, i8, i8, i8, i8, i8, i32, i8, i8, i8, ptr, %struct.Notifier }
%struct.PCIDevice = type { %struct.DeviceState, i8, i8, ptr, ptr, ptr, ptr, ptr, i32, %struct.PCIReqIDCache, [64 x i8], [7 x %struct.PCIIORegion], %struct.AddressSpace, %struct.MemoryRegion, %struct.MemoryRegion, ptr, ptr, [3 x ptr], i8, i8, i32, i8, i32, ptr, ptr, ptr, ptr, ptr, ptr, %struct.MemoryRegion, %struct.MemoryRegion, %struct.MemoryRegion, ptr, i8, i32, i8, %struct.PCIExpressDevice, ptr, ptr, i32, i8, %struct.MemoryRegion, i32, ptr, ptr, ptr, ptr, i16, %struct.DOECap, ptr, i32, i32 }
%struct.DeviceState = type { %struct.Object, ptr, ptr, i8, i8, i64, i32, i8, ptr, %struct.NamedGPIOListHead, %struct.NamedClockListHead, %struct.BusStateHead, i32, i32, i32, %struct.ResettableState, ptr, %struct.MemReentrancyGuard }
%struct.NamedGPIOListHead = type { ptr }
%struct.NamedClockListHead = type { ptr }
%struct.BusStateHead = type { ptr }
%struct.ResettableState = type { i32, i8, i8 }
%struct.MemReentrancyGuard = type { i8 }
%struct.PCIReqIDCache = type { ptr, i32 }
%struct.PCIIORegion = type { i64, i64, i8, ptr, ptr }
%struct.AddressSpace = type { %struct.rcu_head, ptr, ptr, ptr, i32, i32, ptr, %union.anon.4, %union.anon.5, i64, i64, %struct.QemuMutex, %struct.anon.6 }
%struct.rcu_head = type { ptr, ptr }
%union.anon.4 = type { %struct.QTailQLink }
%union.anon.5 = type { %struct.QTailQLink }
%struct.QemuMutex = type { %union.pthread_mutex_t, i8 }
%union.pthread_mutex_t = type { %struct.__pthread_mutex_s }
%struct.__pthread_mutex_s = type { i32, i32, i32, i32, i32, i16, i16, %struct.__pthread_internal_list }
%struct.__pthread_internal_list = type { ptr, ptr }
%struct.anon.6 = type { ptr }
%struct.PCIExpressDevice = type { i8, i8, i8, i16, %struct.PCIEAERLog, i16, i16, i16, %struct.PCIESriovPF, %struct.PCIESriovVF }
%struct.PCIEAERLog = type { i16, i16, ptr }
%struct.PCIESriovPF = type { i16, [7 x i8], ptr, ptr }
%struct.PCIESriovVF = type { ptr, i16 }
%struct.DOECap = type { ptr, i16, %struct.anon.7, %struct.anon.8, %struct.anon.9, ptr, ptr, i32, i32, i32, ptr, i16, i32 }
%struct.anon.7 = type { i8, i16 }
%struct.anon.8 = type { i8, i8, i8 }
%struct.anon.9 = type { i8, i8, i8, i8 }
%struct.VFIODevice = type { %struct.anon.10, %struct.anon.11, %struct.anon.12, ptr, ptr, ptr, ptr, ptr, i32, i32, i8, i8, i8, i8, i8, i32, i8, ptr, i32, i32, i32, ptr, ptr, i32, i32, i8, i8, i8, ptr, i32, ptr, ptr, %struct.anon.13 }
%struct.anon.10 = type { ptr, ptr }
%struct.anon.11 = type { ptr, ptr }
%struct.anon.12 = type { ptr, ptr }
%struct.anon.13 = type { ptr, ptr }
%struct.VFIOINTx = type { i8, i8, i8, %struct.EventNotifier, %struct.EventNotifier, %struct.PCIINTxRoute, i32, ptr }
%struct.PCIINTxRoute = type { i32, i32 }
%struct.VFIOBAR = type { %struct.VFIORegion, ptr, i64, i8, i8, i8, %struct.anon.14 }
%struct.VFIORegion = type { ptr, i64, ptr, i64, i32, i32, ptr, i8 }
%struct.anon.14 = type { ptr }
%struct.PCIHostDeviceAddress = type { i32, i32, i32, i32 }
%struct.QemuUUID = type { %union.anon.15 }
%union.anon.15 = type { %struct.anon.16 }
%struct.anon.16 = type { i32, i16, i16, i8, i8, [6 x i8] }
%struct.EventNotifier = type { i32, i32, i8 }
%struct.Notifier = type { ptr, %struct.anon.17 }
%struct.anon.17 = type { ptr, ptr }

@.str.11 = private unnamed_addr constant [22 x i8] c"../qemu/hw/vfio/pci.c\00", align 1
@.str.23 = private unnamed_addr constant [9 x i8] c"vfio-pci\00", align 1
@.str.24 = private unnamed_addr constant [22 x i8] c"../qemu/hw/vfio/pci.h\00", align 1
@__func__.VFIO_PCI = private unnamed_addr constant [9 x i8] c"VFIO_PCI\00", align 1
@.str.85 = private unnamed_addr constant [10 x i8] c"bar->size\00", align 1
@__PRETTY_FUNCTION__.vfio_bars_finalize = private unnamed_addr constant [41 x i8] c"void vfio_bars_finalize(VFIOPCIDevice *)\00", align 1

; Function Attrs: nounwind sspstrong uwtable
define internal void @vfio_pci_put_device(ptr noundef %0) #0 {
  %2 = alloca ptr, align 8
  store ptr %0, ptr %2, align 8
  %3 = load ptr, ptr %2, align 8
  %4 = getelementptr inbounds nuw %struct.VFIOPCIDevice, ptr %3, i32 0, i32 1
  call void @vfio_detach_device(ptr noundef %4)
  %5 = load ptr, ptr %2, align 8
  %6 = getelementptr inbounds nuw %struct.VFIOPCIDevice, ptr %5, i32 0, i32 1
  %7 = getelementptr inbounds nuw %struct.VFIODevice, ptr %6, i32 0, i32 6
  %8 = load ptr, ptr %7, align 8
  call void @g_free(ptr noundef %8)
  %9 = load ptr, ptr %2, align 8
  %10 = getelementptr inbounds nuw %struct.VFIOPCIDevice, ptr %9, i32 0, i32 11
  %11 = load ptr, ptr %10, align 8
  call void @g_free(ptr noundef %11)
  ret void
}

; Function Attrs: nounwind sspstrong uwtable
define internal void @vfio_bars_finalize(ptr noundef %0) #0 {
  %2 = alloca ptr, align 8
  %3 = alloca i32, align 4
  %4 = alloca ptr, align 8
  store ptr %0, ptr %2, align 8
  call void @llvm.lifetime.start.p0(i64 4, ptr %3) #19
  store i32 0, ptr %3, align 4, !annotation !4
  store i32 0, ptr %3, align 4
  br label %5

5:                                                ; preds = %39, %1
  %6 = load i32, ptr %3, align 4
  %7 = icmp slt i32 %6, 6
  br i1 %7, label %8, label %42

8:                                                ; preds = %5
  call void @llvm.lifetime.start.p0(i64 8, ptr %4) #19
  %9 = load ptr, ptr %2, align 8
  %10 = getelementptr inbounds nuw %struct.VFIOPCIDevice, ptr %9, i32 0, i32 14
  %11 = load i32, ptr %3, align 4
  %12 = sext i32 %11 to i64
  %13 = getelementptr inbounds [6 x %struct.VFIOBAR], ptr %10, i64 0, i64 %12
  store ptr %13, ptr %4, align 8
  %14 = load ptr, ptr %2, align 8
  %15 = load i32, ptr %3, align 4
  call void @vfio_bar_quirk_finalize(ptr noundef %14, i32 noundef %15)
  %16 = load ptr, ptr %4, align 8
  %17 = getelementptr inbounds nuw %struct.VFIOBAR, ptr %16, i32 0, i32 0
  call void @vfio_region_finalize(ptr noundef %17)
  %18 = load ptr, ptr %4, align 8
  %19 = getelementptr inbounds nuw %struct.VFIOBAR, ptr %18, i32 0, i32 1
  %20 = load ptr, ptr %19, align 8
  %21 = icmp ne ptr %20, null
  br i1 %21, label %22, label %38

22:                                               ; preds = %8
  %23 = load ptr, ptr %4, align 8
  %24 = getelementptr inbounds nuw %struct.VFIOBAR, ptr %23, i32 0, i32 2
  %25 = load i64, ptr %24, align 8
  %26 = icmp ne i64 %25, 0
  br i1 %26, label %27, label %28

27:                                               ; preds = %22
  br label %29

28:                                               ; preds = %22
  call void @__assert_fail(ptr noundef @.str.85, ptr noundef @.str.11, i32 noundef 1827, ptr noundef @__PRETTY_FUNCTION__.vfio_bars_finalize) #25
  unreachable

29:                                               ; preds = %27
  %30 = load ptr, ptr %4, align 8
  %31 = getelementptr inbounds nuw %struct.VFIOBAR, ptr %30, i32 0, i32 1
  %32 = load ptr, ptr %31, align 8
  call void @object_unparent(ptr noundef %32)
  %33 = load ptr, ptr %4, align 8
  %34 = getelementptr inbounds nuw %struct.VFIOBAR, ptr %33, i32 0, i32 1
  %35 = load ptr, ptr %34, align 8
  call void @g_free(ptr noundef %35)
  %36 = load ptr, ptr %4, align 8
  %37 = getelementptr inbounds nuw %struct.VFIOBAR, ptr %36, i32 0, i32 1
  store ptr null, ptr %37, align 8
  br label %38

38:                                               ; preds = %29, %8
  call void @llvm.lifetime.end.p0(i64 8, ptr %4) #19
  br label %39

39:                                               ; preds = %38
  %40 = load i32, ptr %3, align 4
  %41 = add i32 %40, 1
  store i32 %41, ptr %3, align 4
  br label %5, !llvm.loop !22

42:                                               ; preds = %5
  %43 = load ptr, ptr %2, align 8
  %44 = getelementptr inbounds nuw %struct.VFIOPCIDevice, ptr %43, i32 0, i32 15
  %45 = load ptr, ptr %44, align 8
  %46 = icmp ne ptr %45, null
  br i1 %46, label %47, label %69

47:                                               ; preds = %42
  %48 = load ptr, ptr %2, align 8
  call void @vfio_vga_quirk_finalize(ptr noundef %48)
  store i32 0, ptr %3, align 4
  br label %49

49:                                               ; preds = %62, %47
  %50 = load i32, ptr %3, align 4
  %51 = sext i32 %50 to i64
  %52 = icmp ult i64 %51, 3
  br i1 %52, label %53, label %65

53:                                               ; preds = %49
  %54 = load ptr, ptr %2, align 8
  %55 = getelementptr inbounds nuw %struct.VFIOPCIDevice, ptr %54, i32 0, i32 15
  %56 = load ptr, ptr %55, align 8
  %57 = getelementptr inbounds nuw %struct.VFIOVGA, ptr %56, i32 0, i32 2
  %58 = load i32, ptr %3, align 4
  %59 = sext i32 %58 to i64
  %60 = getelementptr inbounds [3 x %struct.VFIOVGARegion], ptr %57, i64 0, i64 %59
  %61 = getelementptr inbounds nuw %struct.VFIOVGARegion, ptr %60, i32 0, i32 0
  call void @object_unparent(ptr noundef %61)
  br label %62

62:                                               ; preds = %53
  %63 = load i32, ptr %3, align 4
  %64 = add i32 %63, 1
  store i32 %64, ptr %3, align 4
  br label %49, !llvm.loop !23

65:                                               ; preds = %49
  %66 = load ptr, ptr %2, align 8
  %67 = getelementptr inbounds nuw %struct.VFIOPCIDevice, ptr %66, i32 0, i32 15
  %68 = load ptr, ptr %67, align 8
  call void @g_free(ptr noundef %68)
  br label %69

69:                                               ; preds = %65, %42
  call void @llvm.lifetime.end.p0(i64 4, ptr %3) #19
  ret void
}

; Function Attrs: inlinehint nounwind sspstrong uwtable
define internal ptr @VFIO_PCI(ptr noundef %0) #3 {
  %2 = alloca ptr, align 8
  store ptr %0, ptr %2, align 8
  %3 = load ptr, ptr %2, align 8
  %4 = call ptr @object_dynamic_cast_assert(ptr noundef %3, ptr noundef @.str.23, ptr noundef @.str.24, i32 noundef 120, ptr noundef @__func__.VFIO_PCI)
  ret ptr %4
}

; Function Attrs: nounwind sspstrong uwtable
define internal void @vfio_instance_finalize(ptr noundef %0) #0 {
  %2 = alloca ptr, align 8
  %3 = alloca ptr, align 8
  store ptr %0, ptr %2, align 8
  call void @llvm.lifetime.start.p0(i64 8, ptr %3) #19
  %4 = load ptr, ptr %2, align 8
  %5 = call ptr @VFIO_PCI(ptr noundef %4)
  store ptr %5, ptr %3, align 8
  %6 = load ptr, ptr %3, align 8
  call void @vfio_display_finalize(ptr noundef %6)
  %7 = load ptr, ptr %3, align 8
  call void @vfio_bars_finalize(ptr noundef %7)
  %8 = load ptr, ptr %3, align 8
  %9 = getelementptr inbounds nuw %struct.VFIOPCIDevice, ptr %8, i32 0, i32 4
  %10 = load ptr, ptr %9, align 16
  call void @g_free(ptr noundef %10)
  %11 = load ptr, ptr %3, align 8
  %12 = getelementptr inbounds nuw %struct.VFIOPCIDevice, ptr %11, i32 0, i32 8
  %13 = load ptr, ptr %12, align 16
  call void @g_free(ptr noundef %13)
  %14 = load ptr, ptr %3, align 8
  call void @vfio_pci_put_device(ptr noundef %14)
  call void @llvm.lifetime.end.p0(i64 8, ptr %3) #19
  ret void
}