; Function Attrs: nounwind sspstrong uwtable
define internal void @vfio_instance_finalize(ptr noundef %0) #0 {
  %2 = tail call ptr @object_dynamic_cast_assert(ptr noundef %0, ptr noundef nonnull @.str.23, ptr noundef nonnull @.str.24, i32 noundef 120, ptr noundef nonnull @__func__.VFIO_PCI) #26
  tail call void @vfio_display_finalize(ptr noundef %2) #26
  %3 = getelementptr inbounds nuw i8, ptr %2, i64 3096
  br label %4

4:                                                ; preds = %15, %1
  %indvars.iv.i = phi i64 [ 0, %1 ], [ %indvars.iv.next.i, %15 ]
  %5 = getelementptr inbounds nuw [6 x %struct.VFIOBAR], ptr %3, i64 0, i64 %indvars.iv.i
  %6 = trunc nuw nsw i64 %indvars.iv.i to i32
  tail call void @vfio_bar_quirk_finalize(ptr noundef %2, i32 noundef %6) #26
  tail call void @vfio_region_finalize(ptr noundef nonnull %5) #26
  %7 = getelementptr inbounds nuw i8, ptr %5, i64 56
  %8 = load ptr, ptr %7, align 8
  %.not20.i = icmp eq ptr %8, null
  br i1 %.not20.i, label %15, label %9

9:                                                ; preds = %4
  %10 = getelementptr inbounds nuw i8, ptr %5, i64 64
  %11 = load i64, ptr %10, align 8
  %.not21.i = icmp eq i64 %11, 0
  br i1 %.not21.i, label %12, label %13

12:                                               ; preds = %9
  tail call void @__assert_fail(ptr noundef nonnull @.str.85, ptr noundef nonnull @.str.11, i32 noundef 1827, ptr noundef nonnull @__PRETTY_FUNCTION__.vfio_bars_finalize) #27
  unreachable

13:                                               ; preds = %9
  tail call void @object_unparent(ptr noundef nonnull %8) #26
  %14 = load ptr, ptr %7, align 8
  tail call void @g_free(ptr noundef %14) #26
  store ptr null, ptr %7, align 8
  br label %15

15:                                               ; preds = %13, %4
  %indvars.iv.next.i = add nuw nsw i64 %indvars.iv.i, 1
  %exitcond.not.i = icmp eq i64 %indvars.iv.next.i, 6
  br i1 %exitcond.not.i, label %16, label %4, !llvm.loop !26

16:                                               ; preds = %15
  %17 = getelementptr inbounds nuw i8, ptr %2, i64 3624
  %18 = load ptr, ptr %17, align 8
  %.not.i = icmp eq ptr %18, null
  br i1 %.not.i, label %vfio_bars_finalize.exit, label %19

19:                                               ; preds = %16
  tail call void @vfio_vga_quirk_finalize(ptr noundef nonnull %2) #26
  br label %20

20:                                               ; preds = %20, %19
  %indvars.iv25.i = phi i64 [ 0, %19 ], [ %indvars.iv.next26.i, %20 ]
  %21 = load ptr, ptr %17, align 8
  %22 = getelementptr inbounds nuw i8, ptr %21, i64 16
  %23 = getelementptr inbounds nuw [3 x %struct.VFIOVGARegion], ptr %22, i64 0, i64 %indvars.iv25.i
  tail call void @object_unparent(ptr noundef nonnull %23) #26
  %indvars.iv.next26.i = add nuw nsw i64 %indvars.iv25.i, 1
  %exitcond28.not.i = icmp eq i64 %indvars.iv.next26.i, 3
  br i1 %exitcond28.not.i, label %24, label %20, !llvm.loop !27

24:                                               ; preds = %20
  %25 = load ptr, ptr %17, align 8
  tail call void @g_free(ptr noundef %25) #26
  br label %vfio_bars_finalize.exit

vfio_bars_finalize.exit:                          ; preds = %16, %24
  %26 = getelementptr inbounds nuw i8, ptr %2, i64 3024
  %27 = load ptr, ptr %26, align 16
  tail call void @g_free(ptr noundef %27) #26
  %28 = getelementptr inbounds nuw i8, ptr %2, i64 3056
  %29 = load ptr, ptr %28, align 16
  tail call void @g_free(ptr noundef %29) #26
  %30 = getelementptr inbounds nuw i8, ptr %2, i64 2752
  tail call void @vfio_detach_device(ptr noundef nonnull %30) #26
  %31 = getelementptr inbounds nuw i8, ptr %2, i64 2824
  %32 = load ptr, ptr %31, align 8
  tail call void @g_free(ptr noundef %32) #26
  %33 = getelementptr inbounds nuw i8, ptr %2, i64 3080
  %34 = load ptr, ptr %33, align 8
  tail call void @g_free(ptr noundef %34) #26
  ret void
}